; Function Attrs: mustprogress uwtable
define void @_ZN5faiss15IndexBinaryHNSW5trainElPKh(ptr nocapture noundef nonnull align 8 dereferenceable(5200) %0, i64 noundef %1, ptr noundef %2) unnamed_addr #1 align 2 {
  %4 = getelementptr inbounds i8, ptr %0, i64 5192
  %5 = load ptr, ptr %4, align 8
  %6 = load ptr, ptr %5, align 8
  %7 = getelementptr inbounds i8, ptr %6, i64 16
  %8 = load ptr, ptr %7, align 8
  tail call void %8(ptr noundef nonnull align 8 dereferenceable(32) %5, i64 noundef %1, ptr noundef %2)
  %9 = getelementptr inbounds i8, ptr %0, i64 25
  store i8 1, ptr %9, align 1
  ret void
}